target datalayout = "e-m:e-p270:32:32-p271:32:32-p272:64:64-i64:64-i128:128-f80:128-n8:16:32:64-S128"
target triple = "x86_64-pc-linux-gnu"

%struct.UBiDi = type { ptr, ptr, i32, i32, i32, i32, i32, i32, i32, i32, i32, ptr, ptr, ptr, ptr, ptr, ptr, i8, i8, ptr, ptr, i8, i32, i32, i8, i8, i8, ptr, i32, ptr, i32, ptr, i32, i32, i32, i32, i32, ptr, [10 x %struct.Para], i32, ptr, [1 x %struct.Run], i32, ptr, [5 x %struct.Isolate], %struct.InsertPoints, i32, ptr, ptr }
%struct.Para = type { i32, i32 }
%struct.Run = type { i32, i32, i32 }
%struct.Isolate = type { i32, i32, i32, i16 }
%struct.InsertPoints = type { i32, i32, i32, i32, ptr }
%struct.BracketData = type { ptr, [20 x %struct.Opening], ptr, i32, i32, [127 x %struct.IsoRun], i8 }
%struct.Opening = type { i32, i32, i32, i16, i32, i8 }
%struct.IsoRun = type { i32, i16, i16, i8, i8, i8, i32 }

; Function Attrs: mustprogress uwtable
define signext i8 @ubidi_getMemory_77(ptr noundef %0, ptr noundef %1, i8 noundef signext %2, i32 noundef %3) #0 {
  %5 = alloca i8, align 1
  %6 = alloca ptr, align 8
  %7 = alloca ptr, align 8
  %8 = alloca i8, align 1
  %9 = alloca i32, align 4
  %10 = alloca ptr, align 8
  %11 = alloca i32, align 4
  %12 = alloca ptr, align 8
  store ptr %0, ptr %6, align 8, !tbaa !9
  store ptr %1, ptr %7, align 8, !tbaa !28
  store i8 %2, ptr %8, align 1, !tbaa !30
  store i32 %3, ptr %9, align 4, !tbaa !7
  call void @llvm.lifetime.start.p0(i64 8, ptr %10) #10
  %13 = load ptr, ptr %6, align 8, !tbaa !9
  store ptr %13, ptr %10, align 8, !tbaa !31
  %14 = load ptr, ptr %10, align 8, !tbaa !31
  %15 = load ptr, ptr %14, align 8, !tbaa !9
  %16 = icmp eq ptr %15, null
  br i1 %16, label %17, label %30

17:                                               ; preds = %4
  %18 = load i8, ptr %8, align 1, !tbaa !30
  %19 = icmp ne i8 %18, 0
  br i1 %19, label %20, label %29

20:                                               ; preds = %17
  %21 = load i32, ptr %9, align 4, !tbaa !7
  %22 = sext i32 %21 to i64
  %23 = call noalias ptr @uprv_malloc_77(i64 noundef %22) #11
  %24 = load ptr, ptr %10, align 8, !tbaa !31
  store ptr %23, ptr %24, align 8, !tbaa !9
  %25 = icmp ne ptr %23, null
  br i1 %25, label %26, label %29

26:                                               ; preds = %20
  %27 = load i32, ptr %9, align 4, !tbaa !7
  %28 = load ptr, ptr %7, align 8, !tbaa !28
  store i32 %27, ptr %28, align 4, !tbaa !7
  store i8 1, ptr %5, align 1
  store i32 1, ptr %11, align 4
  br label %54

29:                                               ; preds = %20, %17
  store i8 0, ptr %5, align 1
  store i32 1, ptr %11, align 4
  br label %54

30:                                               ; preds = %4
  %31 = load i32, ptr %9, align 4, !tbaa !7
  %32 = load ptr, ptr %7, align 8, !tbaa !28
  %33 = load i32, ptr %32, align 4, !tbaa !7
  %34 = icmp sle i32 %31, %33
  br i1 %34, label %35, label %36

35:                                               ; preds = %30
  store i8 1, ptr %5, align 1
  store i32 1, ptr %11, align 4
  br label %54

36:                                               ; preds = %30
  %37 = load i8, ptr %8, align 1, !tbaa !30
  %38 = icmp ne i8 %37, 0
  br i1 %38, label %40, label %39

39:                                               ; preds = %36
  store i8 0, ptr %5, align 1
  store i32 1, ptr %11, align 4
  br label %54

40:                                               ; preds = %36
  call void @llvm.lifetime.start.p0(i64 8, ptr %12) #10
  %41 = load ptr, ptr %10, align 8, !tbaa !31
  %42 = load ptr, ptr %41, align 8, !tbaa !9
  %43 = load i32, ptr %9, align 4, !tbaa !7
  %44 = sext i32 %43 to i64
  %45 = call ptr @uprv_realloc_77(ptr noundef %42, i64 noundef %44) #12
  store ptr %45, ptr %12, align 8, !tbaa !9
  %46 = icmp ne ptr %45, null
  br i1 %46, label %47, label %52

47:                                               ; preds = %40
  %48 = load ptr, ptr %12, align 8, !tbaa !9
  %49 = load ptr, ptr %10, align 8, !tbaa !31
  store ptr %48, ptr %49, align 8, !tbaa !9
  %50 = load i32, ptr %9, align 4, !tbaa !7
  %51 = load ptr, ptr %7, align 8, !tbaa !28
  store i32 %50, ptr %51, align 4, !tbaa !7
  store i8 1, ptr %5, align 1
  store i32 1, ptr %11, align 4
  br label %53

52:                                               ; preds = %40
  store i8 0, ptr %5, align 1
  store i32 1, ptr %11, align 4
  br label %53

53:                                               ; preds = %52, %47
  call void @llvm.lifetime.end.p0(i64 8, ptr %12) #10
  br label %54

54:                                               ; preds = %53, %39, %35, %29, %26
  call void @llvm.lifetime.end.p0(i64 8, ptr %10) #10
  %55 = load i8, ptr %5, align 1
  ret i8 %55
}

; Function Attrs: mustprogress uwtable
define internal noundef signext i8 @_ZL17bracketAddOpeningP11BracketDataDsi(ptr noundef %0, i16 noundef zeroext %1, i32 noundef %2) #0 {
  %4 = alloca i8, align 1
  %5 = alloca ptr, align 8
  %6 = alloca i16, align 2
  %7 = alloca i32, align 4
  %8 = alloca ptr, align 8
  %9 = alloca ptr, align 8
  %10 = alloca ptr, align 8
  %11 = alloca i32, align 4
  store ptr %0, ptr %5, align 8, !tbaa !152
  store i16 %1, ptr %6, align 2, !tbaa !46
  store i32 %2, ptr %7, align 4, !tbaa !7
  call void @llvm.lifetime.start.p0(i64 8, ptr %8) #10
  %12 = load ptr, ptr %5, align 8, !tbaa !152
  %13 = getelementptr inbounds nuw %struct.BracketData, ptr %12, i32 0, i32 5
  %14 = load ptr, ptr %5, align 8, !tbaa !152
  %15 = getelementptr inbounds nuw %struct.BracketData, ptr %14, i32 0, i32 4
  %16 = load i32, ptr %15, align 4, !tbaa !156
  %17 = sext i32 %16 to i64
  %18 = getelementptr inbounds [127 x %struct.IsoRun], ptr %13, i64 0, i64 %17
  store ptr %18, ptr %8, align 8, !tbaa !169
  call void @llvm.lifetime.start.p0(i64 8, ptr %9) #10
  %19 = load ptr, ptr %8, align 8, !tbaa !169
  %20 = getelementptr inbounds nuw %struct.IsoRun, ptr %19, i32 0, i32 2
  %21 = load i16, ptr %20, align 2, !tbaa !159
  %22 = zext i16 %21 to i32
  %23 = load ptr, ptr %5, align 8, !tbaa !152
  %24 = getelementptr inbounds nuw %struct.BracketData, ptr %23, i32 0, i32 3
  %25 = load i32, ptr %24, align 8, !tbaa !167
  %26 = icmp sge i32 %22, %25
  br i1 %26, label %27, label %81

27:                                               ; preds = %3
  call void @llvm.lifetime.start.p0(i64 8, ptr %10) #10
  %28 = load ptr, ptr %5, align 8, !tbaa !152
  %29 = getelementptr inbounds nuw %struct.BracketData, ptr %28, i32 0, i32 0
  %30 = load ptr, ptr %29, align 8, !tbaa !154
  store ptr %30, ptr %10, align 8, !tbaa !11
  %31 = load ptr, ptr %10, align 8, !tbaa !11
  %32 = getelementptr inbounds nuw %struct.UBiDi, ptr %31, i32 0, i32 13
  %33 = load ptr, ptr %10, align 8, !tbaa !11
  %34 = getelementptr inbounds nuw %struct.UBiDi, ptr %33, i32 0, i32 7
  %35 = load ptr, ptr %8, align 8, !tbaa !169
  %36 = getelementptr inbounds nuw %struct.IsoRun, ptr %35, i32 0, i32 2
  %37 = load i16, ptr %36, align 2, !tbaa !159
  %38 = zext i16 %37 to i32
  %39 = mul nsw i32 %38, 2
  %40 = sext i32 %39 to i64
  %41 = mul i64 %40, 24
  %42 = trunc i64 %41 to i32
  %43 = call signext i8 @ubidi_getMemory_77(ptr noundef %32, ptr noundef %34, i8 noundef signext 1, i32 noundef %42)
  %44 = icmp ne i8 %43, 0
  br i1 %44, label %46, label %45

45:                                               ; preds = %27
  store i8 0, ptr %4, align 1
  store i32 1, ptr %11, align 4
  br label %78

46:                                               ; preds = %27
  %47 = load ptr, ptr %5, align 8, !tbaa !152
  %48 = getelementptr inbounds nuw %struct.BracketData, ptr %47, i32 0, i32 2
  %49 = load ptr, ptr %48, align 8, !tbaa !165
  %50 = load ptr, ptr %5, align 8, !tbaa !152
  %51 = getelementptr inbounds nuw %struct.BracketData, ptr %50, i32 0, i32 1
  %52 = getelementptr inbounds [20 x %struct.Opening], ptr %51, i64 0, i64 0
  %53 = icmp eq ptr %49, %52
  br i1 %53, label %54, label %64

54:                                               ; preds = %46
  br label %55

55:                                               ; preds = %54
  %56 = load ptr, ptr %10, align 8, !tbaa !11
  %57 = getelementptr inbounds nuw %struct.UBiDi, ptr %56, i32 0, i32 13
  %58 = load ptr, ptr %57, align 8, !tbaa !36
  %59 = load ptr, ptr %5, align 8, !tbaa !152
  %60 = getelementptr inbounds nuw %struct.BracketData, ptr %59, i32 0, i32 1
  %61 = getelementptr inbounds [20 x %struct.Opening], ptr %60, i64 0, i64 0
  call void @llvm.memcpy.p0.p0.i64(ptr align 4 %58, ptr align 8 %61, i64 480, i1 false)
  br label %62

62:                                               ; preds = %55
  br label %63

63:                                               ; preds = %62
  br label %64

64:                                               ; preds = %63, %46
  %65 = load ptr, ptr %10, align 8, !tbaa !11
  %66 = getelementptr inbounds nuw %struct.UBiDi, ptr %65, i32 0, i32 13
  %67 = load ptr, ptr %66, align 8, !tbaa !36
  %68 = load ptr, ptr %5, align 8, !tbaa !152
  %69 = getelementptr inbounds nuw %struct.BracketData, ptr %68, i32 0, i32 2
  store ptr %67, ptr %69, align 8, !tbaa !165
  %70 = load ptr, ptr %10, align 8, !tbaa !11
  %71 = getelementptr inbounds nuw %struct.UBiDi, ptr %70, i32 0, i32 7
  %72 = load i32, ptr %71, align 4, !tbaa !166
  %73 = sext i32 %72 to i64
  %74 = udiv i64 %73, 24
  %75 = trunc i64 %74 to i32
  %76 = load ptr, ptr %5, align 8, !tbaa !152
  %77 = getelementptr inbounds nuw %struct.BracketData, ptr %76, i32 0, i32 3
  store i32 %75, ptr %77, align 8, !tbaa !167
  store i32 0, ptr %11, align 4
  br label %78

78:                                               ; preds = %64, %45
  call void @llvm.lifetime.end.p0(i64 8, ptr %10) #10
  %79 = load i32, ptr %11, align 4
  switch i32 %79, label %113 [
    i32 0, label %80
  ]

80:                                               ; preds = %78
  br label %81

81:                                               ; preds = %80, %3
  %82 = load ptr, ptr %5, align 8, !tbaa !152
  %83 = getelementptr inbounds nuw %struct.BracketData, ptr %82, i32 0, i32 2
  %84 = load ptr, ptr %83, align 8, !tbaa !165
  %85 = load ptr, ptr %8, align 8, !tbaa !169
  %86 = getelementptr inbounds nuw %struct.IsoRun, ptr %85, i32 0, i32 2
  %87 = load i16, ptr %86, align 2, !tbaa !159
  %88 = zext i16 %87 to i64
  %89 = getelementptr inbounds nuw %struct.Opening, ptr %84, i64 %88
  store ptr %89, ptr %9, align 8, !tbaa !178
  %90 = load i32, ptr %7, align 4, !tbaa !7
  %91 = load ptr, ptr %9, align 8, !tbaa !178
  %92 = getelementptr inbounds nuw %struct.Opening, ptr %91, i32 0, i32 0
  store i32 %90, ptr %92, align 4, !tbaa !175
  %93 = load i16, ptr %6, align 2, !tbaa !46
  %94 = zext i16 %93 to i32
  %95 = load ptr, ptr %9, align 8, !tbaa !178
  %96 = getelementptr inbounds nuw %struct.Opening, ptr %95, i32 0, i32 1
  store i32 %94, ptr %96, align 4, !tbaa !171
  %97 = load ptr, ptr %8, align 8, !tbaa !169
  %98 = getelementptr inbounds nuw %struct.IsoRun, ptr %97, i32 0, i32 6
  %99 = load i32, ptr %98, align 4, !tbaa !163
  %100 = load ptr, ptr %9, align 8, !tbaa !178
  %101 = getelementptr inbounds nuw %struct.Opening, ptr %100, i32 0, i32 4
  store i32 %99, ptr %101, align 4, !tbaa !179
  %102 = load ptr, ptr %8, align 8, !tbaa !169
  %103 = getelementptr inbounds nuw %struct.IsoRun, ptr %102, i32 0, i32 0
  %104 = load i32, ptr %103, align 4, !tbaa !164
  %105 = load ptr, ptr %9, align 8, !tbaa !178
  %106 = getelementptr inbounds nuw %struct.Opening, ptr %105, i32 0, i32 2
  store i32 %104, ptr %106, align 4, !tbaa !183
  %107 = load ptr, ptr %9, align 8, !tbaa !178
  %108 = getelementptr inbounds nuw %struct.Opening, ptr %107, i32 0, i32 3
  store i16 0, ptr %108, align 4, !tbaa !173
  %109 = load ptr, ptr %8, align 8, !tbaa !169
  %110 = getelementptr inbounds nuw %struct.IsoRun, ptr %109, i32 0, i32 2
  %111 = load i16, ptr %110, align 2, !tbaa !159
  %112 = add i16 %111, 1
  store i16 %112, ptr %110, align 2, !tbaa !159
  store i8 1, ptr %4, align 1
  store i32 1, ptr %11, align 4
  br label %113

113:                                              ; preds = %81, %78
  call void @llvm.lifetime.end.p0(i64 8, ptr %9) #10
  call void @llvm.lifetime.end.p0(i64 8, ptr %8) #10
  %114 = load i8, ptr %4, align 1
  ret i8 %114
}