; Function Attrs: mustprogress uwtable
define internal fastcc noundef signext range(i8 0, 2) i8 @_ZL17bracketAddOpeningP11BracketDataDsi(ptr noundef nonnull %0, i16 noundef zeroext %1, i32 noundef %2) unnamed_addr #0 {
  %4 = getelementptr inbounds nuw i8, ptr %0, i64 504
  %5 = getelementptr inbounds nuw i8, ptr %0, i64 500
  %6 = load i32, ptr %5, align 4, !tbaa !100
  %7 = sext i32 %6 to i64
  %8 = getelementptr inbounds [127 x %struct.IsoRun], ptr %4, i64 0, i64 %7
  %9 = getelementptr inbounds nuw i8, ptr %8, i64 6
  %10 = load i16, ptr %9, align 2, !tbaa !104
  %11 = zext i16 %10 to i32
  %12 = getelementptr inbounds nuw i8, ptr %0, i64 496
  %13 = load i32, ptr %12, align 8, !tbaa !112
  %.not = icmp sgt i32 %13, %11
  br i1 %.not, label %._crit_edge, label %14

._crit_edge:                                      ; preds = %3
  %.phi.trans.insert = getelementptr inbounds nuw i8, ptr %0, i64 488
  %.pre36 = load ptr, ptr %.phi.trans.insert, align 8, !tbaa !111
  br label %43

14:                                               ; preds = %3
  %15 = load ptr, ptr %0, align 8, !tbaa !98
  %16 = getelementptr inbounds nuw i8, ptr %15, i64 72
  %17 = getelementptr inbounds nuw i8, ptr %15, i64 36
  %narrow = mul nuw nsw i32 %11, 48
  %18 = load ptr, ptr %16, align 8, !tbaa !24
  %19 = icmp eq ptr %18, null
  br i1 %19, label %20, label %23

20:                                               ; preds = %14
  %21 = zext nneg i32 %narrow to i64
  %22 = tail call noalias ptr @uprv_malloc_77(i64 noundef %21) #16
  store ptr %22, ptr %16, align 8, !tbaa !24
  %.not22.i = icmp eq ptr %22, null
  br i1 %.not22.i, label %.critedge, label %.sink.split.i

23:                                               ; preds = %14
  %24 = load i32, ptr %17, align 4, !tbaa !25
  %.not.i = icmp sgt i32 %narrow, %24
  br i1 %.not.i, label %25, label %ubidi_getMemory_77.exit

25:                                               ; preds = %23
  %26 = zext nneg i32 %narrow to i64
  %27 = tail call ptr @uprv_realloc_77(ptr noundef nonnull %18, i64 noundef %26) #17
  %.not20.i = icmp eq ptr %27, null
  br i1 %.not20.i, label %.critedge, label %28

28:                                               ; preds = %25
  store ptr %27, ptr %16, align 8, !tbaa !24
  br label %.sink.split.i

.sink.split.i:                                    ; preds = %28, %20
  %29 = phi ptr [ %27, %28 ], [ %22, %20 ]
  store i32 %narrow, ptr %17, align 4, !tbaa !25
  br label %ubidi_getMemory_77.exit

ubidi_getMemory_77.exit:                          ; preds = %.sink.split.i, %23
  %30 = phi i32 [ %narrow, %.sink.split.i ], [ %24, %23 ]
  %31 = phi ptr [ %29, %.sink.split.i ], [ %18, %23 ]
  %32 = getelementptr inbounds nuw i8, ptr %0, i64 488
  %33 = load ptr, ptr %32, align 8, !tbaa !111
  %34 = getelementptr inbounds nuw i8, ptr %0, i64 8
  %35 = icmp eq ptr %33, %34
  br i1 %35, label %36, label %37

36:                                               ; preds = %ubidi_getMemory_77.exit
  tail call void @llvm.memcpy.p0.p0.i64(ptr noundef nonnull align 4 dereferenceable(480) %31, ptr noundef nonnull align 8 dereferenceable(480) %34, i64 480, i1 false)
  %.pre = load ptr, ptr %16, align 8, !tbaa !30
  %.pre35 = load i32, ptr %17, align 4, !tbaa !110
  br label %37

37:                                               ; preds = %36, %ubidi_getMemory_77.exit
  %38 = phi i32 [ %.pre35, %36 ], [ %30, %ubidi_getMemory_77.exit ]
  %39 = phi ptr [ %.pre, %36 ], [ %31, %ubidi_getMemory_77.exit ]
  store ptr %39, ptr %32, align 8, !tbaa !111
  %40 = sext i32 %38 to i64
  %41 = udiv i64 %40, 24
  %42 = trunc i64 %41 to i32
  store i32 %42, ptr %12, align 8, !tbaa !112
  %.pre37 = load i16, ptr %9, align 2, !tbaa !104
  br label %43

43:                                               ; preds = %._crit_edge, %37
  %44 = phi i16 [ %10, %._crit_edge ], [ %.pre37, %37 ]
  %45 = phi ptr [ %.pre36, %._crit_edge ], [ %39, %37 ]
  %46 = zext i16 %44 to i64
  %47 = getelementptr inbounds nuw %struct.Opening, ptr %45, i64 %46
  store i32 %2, ptr %47, align 4, !tbaa !151
  %48 = zext i16 %1 to i32
  %49 = getelementptr inbounds nuw i8, ptr %47, i64 4
  store i32 %48, ptr %49, align 4, !tbaa !146
  %50 = getelementptr inbounds nuw i8, ptr %8, i64 12
  %51 = load i32, ptr %50, align 4, !tbaa !108
  %52 = getelementptr inbounds nuw i8, ptr %47, i64 16
  store i32 %51, ptr %52, align 4, !tbaa !150
  %53 = load i32, ptr %8, align 4, !tbaa !109
  %54 = getelementptr inbounds nuw i8, ptr %47, i64 8
  store i32 %53, ptr %54, align 4, !tbaa !157
  %55 = getelementptr inbounds nuw i8, ptr %47, i64 12
  store i16 0, ptr %55, align 4, !tbaa !149
  %56 = add i16 %44, 1
  store i16 %56, ptr %9, align 2, !tbaa !104
  br label %.critedge

.critedge:                                        ; preds = %25, %20, %43
  %.1 = phi i8 [ 1, %43 ], [ 0, %20 ], [ 0, %25 ]
  ret i8 %.1
}